; Function Attrs: mustprogress uwtable
define dso_local void @_ZNK4i18n12phonenumbers11UnicodeText4findERKS1_NS1_14const_iteratorE(ptr dead_on_unwind noalias writable writeonly sret(%"class.i18n::phonenumbers::UnicodeText::const_iterator") align 8 captures(none) initializes((0, 8)) %0, ptr noundef nonnull readonly align 8 captures(none) dereferenceable(24) %1, ptr noundef nonnull readonly align 8 captures(none) dereferenceable(24) %2, ptr noundef readonly captures(none) %3) local_unnamed_addr #1 align 2 {
_ZNK4i18n12phonenumbers11UnicodeText10UnsafeFindERKS1_NS1_14const_iteratorE.exit:
  %4 = alloca %"class.i18n::phonenumbers::StringPiece", align 8
  %5 = alloca %"class.i18n::phonenumbers::StringPiece", align 8
  %6 = load ptr, ptr %3, align 8, !tbaa !4
  tail call void @llvm.experimental.noalias.scope.decl(metadata !67)
  call void @llvm.lifetime.start.p0(i64 16, ptr nonnull %4) #27, !noalias !67
  %7 = load ptr, ptr %1, align 8, !tbaa !44, !noalias !67
  %8 = getelementptr inbounds nuw i8, ptr %1, i64 8
  %9 = load i32, ptr %8, align 8, !tbaa !46, !noalias !67
  %10 = sext i32 %9 to i64
  store ptr %7, ptr %4, align 8, !tbaa !70, !noalias !67
  %11 = getelementptr inbounds nuw i8, ptr %4, i64 8
  store i64 %10, ptr %11, align 8, !tbaa !72, !noalias !67
  call void @llvm.lifetime.start.p0(i64 16, ptr nonnull %5) #27, !noalias !67
  %12 = load ptr, ptr %2, align 8, !tbaa !44, !noalias !67
  %13 = getelementptr inbounds nuw i8, ptr %2, i64 8
  %14 = load i32, ptr %13, align 8, !tbaa !46, !noalias !67
  %15 = sext i32 %14 to i64
  store ptr %12, ptr %5, align 8, !tbaa !70, !noalias !67
  %16 = getelementptr inbounds nuw i8, ptr %5, i64 8
  store i64 %15, ptr %16, align 8, !tbaa !72, !noalias !67
  %17 = ptrtoint ptr %6 to i64
  %18 = ptrtoint ptr %7 to i64
  %19 = sub i64 %17, %18
  %20 = call noundef i64 @_ZNK4i18n12phonenumbers11StringPiece4findERKS1_m(ptr noundef nonnull align 8 dereferenceable(16) %4, ptr noundef nonnull align 8 dereferenceable(16) %5, i64 noundef %19), !noalias !67
  %21 = load i64, ptr @_ZN4i18n12phonenumbers11StringPiece4nposE, align 8, !tbaa !47, !noalias !67
  %22 = icmp eq i64 %20, %21
  %23 = load ptr, ptr %1, align 8
  %24 = load i32, ptr %8, align 8
  %25 = sext i32 %24 to i64
  %storemerge.i.v = select i1 %22, i64 %25, i64 %20
  %storemerge.i = getelementptr inbounds i8, ptr %23, i64 %storemerge.i.v
  store ptr %storemerge.i, ptr %0, align 8, !tbaa !4, !alias.scope !67
  call void @llvm.lifetime.end.p0(i64 16, ptr nonnull %5) #27, !noalias !67
  call void @llvm.lifetime.end.p0(i64 16, ptr nonnull %4) #27, !noalias !67
  ret void
}